V/* line 1 */\u000a/* line 2 */\u000a.counties {\u000a  fill: none;\u000a}\u000a\u000a/* line 3 */\u000a/* line 7 */\u000a.states {\u000a  fill: none;\u000a  stroke: white;\u000a  stroke-linejoin: round;\u000a}\u000a\u000a/* line 7 */\u000a/* line 14 */\u000a-fluid {\u000a  background: lightblue;\u000a}\u000a
p1
.